; ModuleID = '56/958.c'
source_filename = "56/958.c"
target datalayout = "e-m:e-p270:32:32-p271:32:32-p272:64:64-i64:64-f80:128-n8:16:32:64-S128"
target triple = "x86_64-pc-linux-gnu"

@.str = private unnamed_addr constant [3 x i8] c"%d\00", align 1

; Function Attrs: noinline nounwind uwtable
define dso_local i32 @main() #0 {
  %1 = alloca i32, align 4
  %2 = alloca i32, align 4
  %3 = alloca i32, align 4
  store i32 0, i32* %1, align 4
  %4 = call i32 (i8*, ...) @__isoc99_scanf(i8* getelementptr inbounds ([3 x i8], [3 x i8]* @.str, i64 0, i64 0), i32* %3)
  store i32 1, i32* %2, align 4
  br label %5

5:                                                ; preds = %27, %0
  %6 = load i32, i32* %2, align 4
  %7 = load i32, i32* %3, align 4
  %8 = sitofp i32 %7 to double
  %9 = call double @log10(double %8) #3
  %10 = fptosi double %9 to i32
  %11 = add nsw i32 %10, 1
  %12 = icmp sle i32 %6, %11
  br i1 %12, label %13, label %30

13:                                               ; preds = %5
  %14 = load i32, i32* %3, align 4
  %15 = load i32, i32* %2, align 4
  %16 = sitofp i32 %15 to double
  %17 = call double @pow(double 1.000000e+01, double %16) #3
  %18 = fptosi double %17 to i32
  %19 = srem i32 %14, %18
  %20 = load i32, i32* %2, align 4
  %21 = sub nsw i32 %20, 1
  %22 = sitofp i32 %21 to double
  %23 = call double @pow(double 1.000000e+01, double %22) #3
  %24 = fptosi double %23 to i32
  %25 = sdiv i32 %19, %24
  %26 = call i32 (i8*, ...) @printf(i8* getelementptr inbounds ([3 x i8], [3 x i8]* @.str, i64 0, i64 0), i32 %25)
  br label %27

27:                                               ; preds = %13
  %28 = load i32, i32* %2, align 4
  %29 = add nsw i32 %28, 1
  store i32 %29, i32* %2, align 4
  br label %5

30:                                               ; preds = %5
  ret i32 0
}

declare dso_local i32 @__isoc99_scanf(i8*, ...) #1

; Function Attrs: nounwind
declare dso_local double @log10(double) #2

declare dso_local i32 @printf(i8*, ...) #1

; Function Attrs: nounwind
declare dso_local double @pow(double, double) #2


!llvm.module.flags = !{!0}
!llvm.ident = !{!1}

!0 = !{i32 1, !"wchar_size", i32 4}
!1 = !{!"clang version 10.0.0-4ubuntu1 "}
