; ModuleID = 'source-C-CXX/55/958.c'
source_filename = "source-C-CXX/55/958.c"
target datalayout = "e-m:e-p270:32:32-p271:32:32-p272:64:64-i64:64-f80:128-n8:16:32:64-S128"
target triple = "x86_64-pc-linux-gnu"

@.str = private unnamed_addr constant [3 x i8] c"%d\00", align 1

; Function Attrs: nofree nounwind sspstrong uwtable
define dso_local i32 @main() local_unnamed_addr #0 {
  %1 = alloca i32, align 4
  %2 = bitcast i32* %1 to i8*
  call void @llvm.lifetime.start.p0i8(i64 4, i8* nonnull %2) #4
  %3 = call i32 (i8*, ...) @__isoc99_scanf(i8* getelementptr inbounds ([3 x i8], [3 x i8]* @.str, i64 0, i64 0), i32* nonnull %1)
  %4 = load i32, i32* %1, align 4, !tbaa !5
  %5 = sitofp i32 %4 to double
  %6 = call double @log10(double %5) #4
  %7 = fptosi double %6 to i32
  %8 = icmp slt i32 %7, 0
  br i1 %8, label %28, label %9

9:                                                ; preds = %0, %9
  %10 = phi i32 [ %22, %9 ], [ 1, %0 ]
  %11 = load i32, i32* %1, align 4, !tbaa !5
  %12 = sitofp i32 %10 to double
  %13 = call double @pow(double 1.000000e+01, double %12) #4
  %14 = fptosi double %13 to i32
  %15 = srem i32 %11, %14
  %16 = add nsw i32 %10, -1
  %17 = sitofp i32 %16 to double
  %18 = call double @pow(double 1.000000e+01, double %17) #4
  %19 = fptosi double %18 to i32
  %20 = sdiv i32 %15, %19
  %21 = call i32 (i8*, ...) @printf(i8* nonnull dereferenceable(1) getelementptr inbounds ([3 x i8], [3 x i8]* @.str, i64 0, i64 0), i32 %20)
  %22 = add nuw nsw i32 %10, 1
  %23 = load i32, i32* %1, align 4, !tbaa !5
  %24 = sitofp i32 %23 to double
  %25 = call double @log10(double %24) #4
  %26 = fptosi double %25 to i32
  %27 = icmp sgt i32 %10, %26
  br i1 %27, label %28, label %9, !llvm.loop !9

28:                                               ; preds = %9, %0
  call void @llvm.lifetime.end.p0i8(i64 4, i8* nonnull %2) #4
  ret i32 0
}

; Function Attrs: argmemonly mustprogress nofree nosync nounwind willreturn
declare void @llvm.lifetime.start.p0i8(i64 immarg, i8* nocapture) #1

; Function Attrs: nofree nounwind
declare noundef i32 @__isoc99_scanf(i8* nocapture noundef readonly, ...) local_unnamed_addr #2

; Function Attrs: mustprogress nofree nounwind willreturn
declare double @log10(double) local_unnamed_addr #3

; Function Attrs: nofree nounwind
declare noundef i32 @printf(i8* nocapture noundef readonly, ...) local_unnamed_addr #2

; Function Attrs: mustprogress nofree nounwind willreturn
declare double @pow(double, double) local_unnamed_addr #3

; Function Attrs: argmemonly mustprogress nofree nosync nounwind willreturn
declare void @llvm.lifetime.end.p0i8(i64 immarg, i8* nocapture) #1


!llvm.module.flags = !{!0, !1, !2, !3}
!llvm.ident = !{!4}

!0 = !{i32 1, !"wchar_size", i32 4}
!1 = !{i32 7, !"PIC Level", i32 2}
!2 = !{i32 7, !"PIE Level", i32 2}
!3 = !{i32 7, !"uwtable", i32 1}
!4 = !{!"clang version 13.0.0"}
!5 = !{!6, !6, i64 0}
!6 = !{!"int", !7, i64 0}
!7 = !{!"omnipotent char", !8, i64 0}
!8 = !{!"Simple C/C++ TBAA"}
!9 = distinct !{!9, !10}
!10 = !{!"llvm.loop.mustprogress"}
